target datalayout = "e-m:e-p270:32:32-p271:32:32-p272:64:64-i64:64-i128:128-f80:128-n8:16:32:64-S128"
target triple = "x86_64-pc-linux-gnu"

%struct.AVFilterContext = type { ptr, ptr, ptr, ptr, ptr, i32, ptr, ptr, i32, ptr, ptr, i32, i32, ptr, ptr, ptr, ptr, i32, ptr, i32, i32 }
%struct.TPadContext = type { ptr, i32, i32, i32, i32, i64, i64, [4 x i8], %struct.FFDrawContext, %struct.FFDrawColor, i64, i32, ptr, ptr }
%struct.FFDrawContext = type { ptr, i32, i32, [4 x i32], [4 x i8], [4 x i8], i8, i8, i32, i32, i32, [3 x [3 x double]] }
%struct.FFDrawColor = type { [4 x i8], [4 x %union.anon.2] }
%union.anon.2 = type { [4 x i32] }

; Function Attrs: nounwind uwtable
define internal i32 @needs_drawing(ptr noundef %0) #1 {
  %2 = alloca ptr, align 8
  store ptr %0, ptr %2, align 8, !tbaa !22
  %3 = load ptr, ptr %2, align 8, !tbaa !22
  %4 = getelementptr inbounds nuw %struct.TPadContext, ptr %3, i32 0, i32 4
  %5 = load i32, ptr %4, align 4, !tbaa !64
  %6 = icmp eq i32 %5, 0
  br i1 %6, label %7, label %17

7:                                                ; preds = %1
  %8 = load ptr, ptr %2, align 8, !tbaa !22
  %9 = getelementptr inbounds nuw %struct.TPadContext, ptr %8, i32 0, i32 2
  %10 = load i32, ptr %9, align 4, !tbaa !42
  %11 = icmp ne i32 %10, 0
  br i1 %11, label %36, label %12

12:                                               ; preds = %7
  %13 = load ptr, ptr %2, align 8, !tbaa !22
  %14 = getelementptr inbounds nuw %struct.TPadContext, ptr %13, i32 0, i32 6
  %15 = load i64, ptr %14, align 8, !tbaa !73
  %16 = icmp ne i64 %15, 0
  br i1 %16, label %36, label %17

17:                                               ; preds = %12, %1
  %18 = load ptr, ptr %2, align 8, !tbaa !22
  %19 = getelementptr inbounds nuw %struct.TPadContext, ptr %18, i32 0, i32 3
  %20 = load i32, ptr %19, align 8, !tbaa !45
  %21 = icmp eq i32 %20, 0
  br i1 %21, label %22, label %34

22:                                               ; preds = %17
  %23 = load ptr, ptr %2, align 8, !tbaa !22
  %24 = getelementptr inbounds nuw %struct.TPadContext, ptr %23, i32 0, i32 1
  %25 = load i32, ptr %24, align 8, !tbaa !43
  %26 = icmp ne i32 %25, 0
  br i1 %26, label %32, label %27

27:                                               ; preds = %22
  %28 = load ptr, ptr %2, align 8, !tbaa !22
  %29 = getelementptr inbounds nuw %struct.TPadContext, ptr %28, i32 0, i32 5
  %30 = load i64, ptr %29, align 8, !tbaa !70
  %31 = icmp ne i64 %30, 0
  br label %32

32:                                               ; preds = %27, %22
  %33 = phi i1 [ true, %22 ], [ %31, %27 ]
  br label %34

34:                                               ; preds = %32, %17
  %35 = phi i1 [ false, %17 ], [ %33, %32 ]
  br label %36

36:                                               ; preds = %34, %12, %7
  %37 = phi i1 [ true, %12 ], [ true, %7 ], [ %35, %34 ]
  %38 = zext i1 %37 to i32
  ret i32 %38
}

; Function Attrs: nounwind uwtable
define internal i32 @query_formats(ptr noundef %0, ptr noundef %1, ptr noundef %2) #1 {
  %4 = alloca i32, align 4
  %5 = alloca ptr, align 8
  %6 = alloca ptr, align 8
  %7 = alloca ptr, align 8
  %8 = alloca ptr, align 8
  %9 = alloca i32, align 4
  store ptr %0, ptr %5, align 8, !tbaa !4
  store ptr %1, ptr %6, align 8, !tbaa !24
  store ptr %2, ptr %7, align 8, !tbaa !24
  call void @llvm.lifetime.start.p0(i64 8, ptr %8) #7
  %10 = load ptr, ptr %5, align 8, !tbaa !4
  %11 = getelementptr inbounds nuw %struct.AVFilterContext, ptr %10, i32 0, i32 9
  %12 = load ptr, ptr %11, align 8, !tbaa !9
  store ptr %12, ptr %8, align 8, !tbaa !22
  %13 = load ptr, ptr %8, align 8, !tbaa !22
  %14 = call i32 @needs_drawing(ptr noundef %13)
  %15 = icmp ne i32 %14, 0
  br i1 %15, label %16, label %22

16:                                               ; preds = %3
  %17 = load ptr, ptr %5, align 8, !tbaa !4
  %18 = load ptr, ptr %6, align 8, !tbaa !24
  %19 = load ptr, ptr %7, align 8, !tbaa !24
  %20 = call ptr @ff_draw_supported_pixel_formats(i32 noundef 0)
  %21 = call i32 @ff_set_common_formats2(ptr noundef %17, ptr noundef %18, ptr noundef %19, ptr noundef %20)
  store i32 %21, ptr %4, align 4
  store i32 1, ptr %9, align 4
  br label %28

22:                                               ; preds = %3
  %23 = load ptr, ptr %5, align 8, !tbaa !4
  %24 = load ptr, ptr %6, align 8, !tbaa !24
  %25 = load ptr, ptr %7, align 8, !tbaa !24
  %26 = call ptr @ff_all_formats(i32 noundef 0)
  %27 = call i32 @ff_set_common_formats2(ptr noundef %23, ptr noundef %24, ptr noundef %25, ptr noundef %26)
  store i32 %27, ptr %4, align 4
  store i32 1, ptr %9, align 4
  br label %28

28:                                               ; preds = %22, %16
  call void @llvm.lifetime.end.p0(i64 8, ptr %8) #7
  %29 = load i32, ptr %4, align 4
  ret i32 %29
}