; Function Attrs: nounwind uwtable
define internal i32 @query_formats(ptr noundef %0, ptr noundef %1, ptr noundef %2) #1 {
  %4 = getelementptr inbounds nuw i8, ptr %0, i64 72
  %5 = load ptr, ptr %4, align 8, !tbaa !4
  %6 = getelementptr inbounds nuw i8, ptr %5, i64 20
  %7 = load i32, ptr %6, align 4, !tbaa !20
  %8 = icmp eq i32 %7, 0
  br i1 %8, label %9, label %15

9:                                                ; preds = %3
  %10 = getelementptr inbounds nuw i8, ptr %5, i64 12
  %11 = load i32, ptr %10, align 4, !tbaa !27
  %.not.i = icmp eq i32 %11, 0
  br i1 %.not.i, label %12, label %needs_drawing.exit.thread

12:                                               ; preds = %9
  %13 = getelementptr inbounds nuw i8, ptr %5, i64 32
  %14 = load i64, ptr %13, align 8, !tbaa !28
  %.not6.i = icmp eq i64 %14, 0
  br i1 %.not6.i, label %15, label %needs_drawing.exit.thread

15:                                               ; preds = %12, %3
  %16 = getelementptr inbounds nuw i8, ptr %5, i64 16
  %17 = load i32, ptr %16, align 8, !tbaa !29
  %18 = icmp eq i32 %17, 0
  br i1 %18, label %19, label %needs_drawing.exit.thread9

19:                                               ; preds = %15
  %20 = getelementptr inbounds nuw i8, ptr %5, i64 8
  %21 = load i32, ptr %20, align 8, !tbaa !30
  %.not7.i = icmp eq i32 %21, 0
  br i1 %.not7.i, label %needs_drawing.exit, label %needs_drawing.exit.thread

needs_drawing.exit:                               ; preds = %19
  %22 = getelementptr inbounds nuw i8, ptr %5, i64 24
  %23 = load i64, ptr %22, align 8, !tbaa !31
  %.not11 = icmp eq i64 %23, 0
  br i1 %.not11, label %needs_drawing.exit.thread9, label %needs_drawing.exit.thread

needs_drawing.exit.thread:                        ; preds = %19, %9, %12, %needs_drawing.exit
  %24 = tail call ptr @ff_draw_supported_pixel_formats(i32 noundef 0) #6
  br label %26

needs_drawing.exit.thread9:                       ; preds = %15, %needs_drawing.exit
  %25 = tail call ptr @ff_all_formats(i32 noundef 0) #6
  br label %26

26:                                               ; preds = %needs_drawing.exit.thread9, %needs_drawing.exit.thread
  %.sink = phi ptr [ %25, %needs_drawing.exit.thread9 ], [ %24, %needs_drawing.exit.thread ]
  %27 = tail call i32 @ff_set_common_formats2(ptr noundef nonnull %0, ptr noundef %1, ptr noundef %2, ptr noundef %.sink) #6
  ret i32 %27
}